target datalayout = "e-m:e-p270:32:32-p271:32:32-p272:64:64-i64:64-i128:128-f80:128-n8:16:32:64-S128"
target triple = "x86_64-pc-linux-gnu"

%struct.zstream = type { i64, i64, i64, i64, %struct.z_stream_s, ptr }
%struct.z_stream_s = type { ptr, i32, i64, ptr, i32, i64, ptr, ptr, ptr, ptr, ptr, i32, i64, i64 }
%struct.gzfile = type { %struct.zstream, i64, i32, i32, i64, i64, i64, i64, i32, i32, i64, ptr, ptr, ptr, ptr, i64, i64 }

; Function Attrs: nounwind sspstrong uwtable
define internal void @zstream_mark(ptr noundef %0) #0 {
  %2 = alloca ptr, align 8
  %3 = alloca ptr, align 8
  store ptr %0, ptr %2, align 8, !tbaa !77
  call void @llvm.lifetime.start.p0(i64 8, ptr %3) #23
  %4 = load ptr, ptr %2, align 8, !tbaa !77
  store ptr %4, ptr %3, align 8, !tbaa !21
  %5 = load ptr, ptr %3, align 8, !tbaa !21
  %6 = getelementptr inbounds nuw %struct.zstream, ptr %5, i32 0, i32 1
  %7 = load i64, ptr %6, align 8, !tbaa !35
  call void @rb_gc_mark(i64 noundef %7)
  %8 = load ptr, ptr %3, align 8, !tbaa !21
  %9 = getelementptr inbounds nuw %struct.zstream, ptr %8, i32 0, i32 2
  %10 = load i64, ptr %9, align 8, !tbaa !28
  call void @rb_gc_mark(i64 noundef %10)
  %11 = load ptr, ptr %3, align 8, !tbaa !21
  %12 = getelementptr inbounds nuw %struct.zstream, ptr %11, i32 0, i32 3
  %13 = load i64, ptr %12, align 8, !tbaa !40
  call void @rb_gc_mark(i64 noundef %13)
  call void @llvm.lifetime.end.p0(i64 8, ptr %3) #23
  ret void
}

; Function Attrs: nounwind sspstrong uwtable
define internal void @gzfile_mark(ptr noundef %0) #0 {
  %2 = alloca ptr, align 8
  %3 = alloca ptr, align 8
  store ptr %0, ptr %2, align 8, !tbaa !77
  call void @llvm.lifetime.start.p0(i64 8, ptr %3) #23
  %4 = load ptr, ptr %2, align 8, !tbaa !77
  store ptr %4, ptr %3, align 8, !tbaa !57
  %5 = load ptr, ptr %3, align 8, !tbaa !57
  %6 = getelementptr inbounds nuw %struct.gzfile, ptr %5, i32 0, i32 1
  %7 = load i64, ptr %6, align 8, !tbaa !46
  call void @rb_gc_mark(i64 noundef %7)
  %8 = load ptr, ptr %3, align 8, !tbaa !57
  %9 = getelementptr inbounds nuw %struct.gzfile, ptr %8, i32 0, i32 5
  %10 = load i64, ptr %9, align 8, !tbaa !54
  call void @rb_gc_mark(i64 noundef %10)
  %11 = load ptr, ptr %3, align 8, !tbaa !57
  %12 = getelementptr inbounds nuw %struct.gzfile, ptr %11, i32 0, i32 6
  %13 = load i64, ptr %12, align 8, !tbaa !55
  call void @rb_gc_mark(i64 noundef %13)
  %14 = load ptr, ptr %3, align 8, !tbaa !57
  %15 = getelementptr inbounds nuw %struct.gzfile, ptr %14, i32 0, i32 0
  call void @zstream_mark(ptr noundef %15)
  %16 = load ptr, ptr %3, align 8, !tbaa !57
  %17 = getelementptr inbounds nuw %struct.gzfile, ptr %16, i32 0, i32 15
  %18 = load i64, ptr %17, align 8, !tbaa !131
  call void @rb_gc_mark(i64 noundef %18)
  %19 = load ptr, ptr %3, align 8, !tbaa !57
  %20 = getelementptr inbounds nuw %struct.gzfile, ptr %19, i32 0, i32 16
  %21 = load i64, ptr %20, align 8, !tbaa !132
  call void @rb_gc_mark(i64 noundef %21)
  call void @llvm.lifetime.end.p0(i64 8, ptr %3) #23
  ret void
}