; Function Attrs: nounwind sspstrong uwtable
define internal void @gzfile_mark(ptr noundef readonly captures(none) %0) #0 {
  %2 = getelementptr inbounds nuw i8, ptr %0, i64 152
  %3 = load i64, ptr %2, align 8, !tbaa !117
  tail call void @rb_gc_mark(i64 noundef %3) #18
  %4 = getelementptr inbounds nuw i8, ptr %0, i64 176
  %5 = load i64, ptr %4, align 8, !tbaa !122
  tail call void @rb_gc_mark(i64 noundef %5) #18
  %6 = getelementptr inbounds nuw i8, ptr %0, i64 184
  %7 = load i64, ptr %6, align 8, !tbaa !123
  tail call void @rb_gc_mark(i64 noundef %7) #18
  %8 = getelementptr inbounds nuw i8, ptr %0, i64 8
  %9 = load i64, ptr %8, align 8, !tbaa !43
  tail call void @rb_gc_mark(i64 noundef %9) #18
  %10 = getelementptr inbounds nuw i8, ptr %0, i64 16
  %11 = load i64, ptr %10, align 8, !tbaa !51
  tail call void @rb_gc_mark(i64 noundef %11) #18
  %12 = getelementptr inbounds nuw i8, ptr %0, i64 24
  %13 = load i64, ptr %12, align 8, !tbaa !70
  tail call void @rb_gc_mark(i64 noundef %13) #18
  %14 = getelementptr inbounds nuw i8, ptr %0, i64 248
  %15 = load i64, ptr %14, align 8, !tbaa !143
  tail call void @rb_gc_mark(i64 noundef %15) #18
  %16 = getelementptr inbounds nuw i8, ptr %0, i64 256
  %17 = load i64, ptr %16, align 8, !tbaa !195
  tail call void @rb_gc_mark(i64 noundef %17) #18
  ret void
}